; ModuleID = '36/238.c'
source_filename = "36/238.c"
target datalayout = "e-m:e-p270:32:32-p271:32:32-p272:64:64-i64:64-f80:128-n8:16:32:64-S128"
target triple = "x86_64-pc-linux-gnu"

@la = common dso_local global i32 0, align 4
@b = common dso_local global [200 x i8] zeroinitializer, align 16
@.str = private unnamed_addr constant [5 x i8] c"%s%s\00", align 1
@a = common dso_local global [200 x i8] zeroinitializer, align 16
@lb = common dso_local global i32 0, align 4
@.str.1 = private unnamed_addr constant [3 x i8] c"NO\00", align 1
@.str.2 = private unnamed_addr constant [4 x i8] c"YES\00", align 1

; Function Attrs: noinline nounwind uwtable
define dso_local i32 @appear(i8 signext %0) #0 {
  %2 = alloca i32, align 4
  %3 = alloca i8, align 1
  %4 = alloca i32, align 4
  store i8 %0, i8* %3, align 1
  store i32 0, i32* %4, align 4
  br label %5

5:                                                ; preds = %23, %1
  %6 = load i32, i32* %4, align 4
  %7 = load i32, i32* @la, align 4
  %8 = icmp slt i32 %6, %7
  br i1 %8, label %9, label %26

9:                                                ; preds = %5
  %10 = load i8, i8* %3, align 1
  %11 = sext i8 %10 to i32
  %12 = load i32, i32* %4, align 4
  %13 = sext i32 %12 to i64
  %14 = getelementptr inbounds [200 x i8], [200 x i8]* @b, i64 0, i64 %13
  %15 = load i8, i8* %14, align 1
  %16 = sext i8 %15 to i32
  %17 = icmp eq i32 %11, %16
  br i1 %17, label %18, label %22

18:                                               ; preds = %9
  %19 = load i32, i32* %4, align 4
  %20 = sext i32 %19 to i64
  %21 = getelementptr inbounds [200 x i8], [200 x i8]* @b, i64 0, i64 %20
  store i8 0, i8* %21, align 1
  store i32 1, i32* %2, align 4
  br label %27

22:                                               ; preds = %9
  br label %23

23:                                               ; preds = %22
  %24 = load i32, i32* %4, align 4
  %25 = add nsw i32 %24, 1
  store i32 %25, i32* %4, align 4
  br label %5

26:                                               ; preds = %5
  store i32 0, i32* %2, align 4
  br label %27

27:                                               ; preds = %26, %18
  %28 = load i32, i32* %2, align 4
  ret i32 %28
}

; Function Attrs: noinline nounwind uwtable
define dso_local i32 @main() #0 {
  %1 = alloca i32, align 4
  %2 = alloca i32, align 4
  %3 = alloca i32, align 4
  %4 = alloca i32, align 4
  store i32 0, i32* %1, align 4
  %5 = call i32 (i8*, ...) @__isoc99_scanf(i8* getelementptr inbounds ([5 x i8], [5 x i8]* @.str, i64 0, i64 0), i8* getelementptr inbounds ([200 x i8], [200 x i8]* @a, i64 0, i64 0), i8* getelementptr inbounds ([200 x i8], [200 x i8]* @b, i64 0, i64 0))
  %6 = call i64 @strlen(i8* getelementptr inbounds ([200 x i8], [200 x i8]* @a, i64 0, i64 0)) #3
  %7 = trunc i64 %6 to i32
  store i32 %7, i32* @la, align 4
  %8 = call i64 @strlen(i8* getelementptr inbounds ([200 x i8], [200 x i8]* @b, i64 0, i64 0)) #3
  %9 = trunc i64 %8 to i32
  store i32 %9, i32* @lb, align 4
  %10 = load i32, i32* @la, align 4
  %11 = load i32, i32* @lb, align 4
  %12 = icmp ne i32 %10, %11
  br i1 %12, label %13, label %15

13:                                               ; preds = %0
  %14 = call i32 (i8*, ...) @printf(i8* getelementptr inbounds ([3 x i8], [3 x i8]* @.str.1, i64 0, i64 0))
  store i32 0, i32* %1, align 4
  br label %35

15:                                               ; preds = %0
  store i32 0, i32* %2, align 4
  br label %16

16:                                               ; preds = %30, %15
  %17 = load i32, i32* %2, align 4
  %18 = load i32, i32* @la, align 4
  %19 = icmp slt i32 %17, %18
  br i1 %19, label %20, label %33

20:                                               ; preds = %16
  %21 = load i32, i32* %2, align 4
  %22 = sext i32 %21 to i64
  %23 = getelementptr inbounds [200 x i8], [200 x i8]* @a, i64 0, i64 %22
  %24 = load i8, i8* %23, align 1
  %25 = call i32 @appear(i8 signext %24)
  %26 = icmp eq i32 %25, 0
  br i1 %26, label %27, label %29

27:                                               ; preds = %20
  %28 = call i32 (i8*, ...) @printf(i8* getelementptr inbounds ([3 x i8], [3 x i8]* @.str.1, i64 0, i64 0))
  store i32 0, i32* %1, align 4
  br label %35

29:                                               ; preds = %20
  br label %30

30:                                               ; preds = %29
  %31 = load i32, i32* %2, align 4
  %32 = add nsw i32 %31, 1
  store i32 %32, i32* %2, align 4
  br label %16

33:                                               ; preds = %16
  %34 = call i32 (i8*, ...) @printf(i8* getelementptr inbounds ([4 x i8], [4 x i8]* @.str.2, i64 0, i64 0))
  store i32 0, i32* %1, align 4
  br label %35

35:                                               ; preds = %33, %27, %13
  %36 = load i32, i32* %1, align 4
  ret i32 %36
}

declare dso_local i32 @__isoc99_scanf(i8*, ...) #1

; Function Attrs: nounwind readonly
declare dso_local i64 @strlen(i8*) #2

declare dso_local i32 @printf(i8*, ...) #1


!llvm.module.flags = !{!0}
!llvm.ident = !{!1}

!0 = !{i32 1, !"wchar_size", i32 4}
!1 = !{!"clang version 10.0.0-4ubuntu1 "}
